; Function Attrs: mustprogress nounwind uwtable
define dso_local noundef ptr @_ZNK4llvm6VPLane16getAsRuntimeExprERNS_13IRBuilderBaseERKNS_12ElementCountE(ptr nocapture noundef nonnull readonly align 4 dereferenceable(5) %0, ptr noundef nonnull align 8 dereferenceable(128) %1, ptr nocapture noundef nonnull readonly align 4 dereferenceable(5) %2) local_unnamed_addr #0 align 2 {
  %4 = alloca %"class.llvm::Twine", align 8
  %5 = alloca %"class.llvm::Twine", align 8
  %6 = getelementptr inbounds nuw i8, ptr %0, i64 4
  %7 = load i8, ptr %6, align 4
  %switch = icmp eq i8 %7, 1
  br i1 %switch, label %8, label %44

8:                                                ; preds = %3
  %9 = getelementptr inbounds nuw i8, ptr %1, i64 72
  %10 = load ptr, ptr %9, align 8
  %11 = tail call noundef ptr @_ZN4llvm4Type10getInt32TyERNS_11LLVMContextE(ptr noundef nonnull align 8 dereferenceable(8) %10) #21
  %.sroa.0.0.copyload = load i64, ptr %2, align 4
  %12 = tail call noundef ptr @_ZN4llvm12getRuntimeVFERNS_13IRBuilderBaseEPNS_4TypeENS_12ElementCountE(ptr noundef nonnull align 8 dereferenceable(128) %1, ptr noundef %11, i64 %.sroa.0.0.copyload) #21
  %13 = load i32, ptr %2, align 4
  %14 = load i32, ptr %0, align 4
  %15 = sub i32 %13, %14
  %16 = load ptr, ptr %9, align 8
  %17 = tail call noundef ptr @_ZN4llvm4Type10getInt32TyERNS_11LLVMContextE(ptr noundef nonnull align 8 dereferenceable(8) %16) #21
  %18 = zext i32 %15 to i64
  %19 = tail call noundef ptr @_ZN4llvm11ConstantInt3getEPNS_11IntegerTypeEmb(ptr noundef %17, i64 noundef %18, i1 noundef zeroext false) #21
  %20 = getelementptr inbounds nuw i8, ptr %5, i64 32
  %21 = getelementptr inbounds nuw i8, ptr %1, i64 80
  store i16 257, ptr %20, align 8
  %22 = load ptr, ptr %21, align 8
  %23 = load ptr, ptr %22, align 8
  %24 = getelementptr inbounds i8, ptr %23, i64 32
  %25 = load ptr, ptr %24, align 8
  %26 = tail call noundef ptr %25(ptr noundef nonnull align 8 dereferenceable(8) %22, i32 noundef 15, ptr noundef %12, ptr noundef %19, i1 noundef zeroext false, i1 noundef zeroext false) #21
  %.not.i = icmp eq ptr %26, null
  br i1 %.not.i, label %27, label %_ZN4llvm13IRBuilderBase9CreateSubEPNS_5ValueES2_RKNS_5TwineEbb.exit

27:                                               ; preds = %8
  call void @llvm.lifetime.start.p0(i64 40, ptr nonnull %4)
  %28 = getelementptr inbounds nuw i8, ptr %4, i64 32
  store i8 1, ptr %28, align 8
  %29 = getelementptr inbounds nuw i8, ptr %4, i64 33
  store i8 1, ptr %29, align 1
  %30 = call noundef ptr @_ZN4llvm14BinaryOperator6CreateENS_11Instruction9BinaryOpsEPNS_5ValueES4_RKNS_5TwineENS_14InsertPositionE(i32 noundef 15, ptr noundef %12, ptr noundef %19, ptr noundef nonnull align 8 dereferenceable(34) %4, ptr null, i64 0) #21
  %31 = getelementptr inbounds nuw i8, ptr %1, i64 88
  %32 = load ptr, ptr %31, align 8
  %33 = getelementptr inbounds nuw i8, ptr %1, i64 56
  %.sroa.0.0.copyload.i.i = load ptr, ptr %33, align 8
  %.sroa.2.0..sroa_idx.i.i = getelementptr inbounds i8, ptr %1, i64 64
  %.sroa.2.0.copyload.i.i = load i64, ptr %.sroa.2.0..sroa_idx.i.i, align 8
  %34 = load ptr, ptr %32, align 8
  %35 = getelementptr inbounds i8, ptr %34, i64 16
  %36 = load ptr, ptr %35, align 8
  call void %36(ptr noundef nonnull align 8 dereferenceable(8) %32, ptr noundef %30, ptr noundef nonnull align 8 dereferenceable(34) %5, ptr %.sroa.0.0.copyload.i.i, i64 %.sroa.2.0.copyload.i.i) #21
  %37 = load ptr, ptr %1, align 8
  %38 = call noundef i64 @_ZNK4llvm15SmallVectorBaseIjE4sizeEv(ptr noundef nonnull align 8 dereferenceable(16) %1) #21
  %39 = getelementptr inbounds %"struct.std::pair.412", ptr %37, i64 %38
  %.not10.i.i.i = icmp eq i64 %38, 0
  br i1 %.not10.i.i.i, label %_ZN4llvm13IRBuilderBase23CreateInsertNUWNSWBinOpENS_11Instruction9BinaryOpsEPNS_5ValueES4_RKNS_5TwineEbb.exit, label %.lr.ph.i.i.i

.lr.ph.i.i.i:                                     ; preds = %27, %.lr.ph.i.i.i
  %.011.i.i.i = phi ptr [ %43, %.lr.ph.i.i.i ], [ %37, %27 ]
  %40 = load i32, ptr %.011.i.i.i, align 8
  %41 = getelementptr inbounds nuw i8, ptr %.011.i.i.i, i64 8
  %42 = load ptr, ptr %41, align 8
  call void @_ZN4llvm11Instruction11setMetadataEjPNS_6MDNodeE(ptr noundef nonnull align 8 dereferenceable(72) %30, i32 noundef %40, ptr noundef %42) #21
  %43 = getelementptr inbounds i8, ptr %.011.i.i.i, i64 16
  %.not.i.i.i = icmp eq ptr %43, %39
  br i1 %.not.i.i.i, label %_ZN4llvm13IRBuilderBase23CreateInsertNUWNSWBinOpENS_11Instruction9BinaryOpsEPNS_5ValueES4_RKNS_5TwineEbb.exit, label %.lr.ph.i.i.i

_ZN4llvm13IRBuilderBase23CreateInsertNUWNSWBinOpENS_11Instruction9BinaryOpsEPNS_5ValueES4_RKNS_5TwineEbb.exit: ; preds = %.lr.ph.i.i.i, %27
  call void @llvm.lifetime.end.p0(i64 40, ptr nonnull %4)
  br label %_ZN4llvm13IRBuilderBase9CreateSubEPNS_5ValueES2_RKNS_5TwineEbb.exit

44:                                               ; preds = %3
  %45 = load i32, ptr %0, align 4
  %46 = getelementptr inbounds nuw i8, ptr %1, i64 72
  %47 = load ptr, ptr %46, align 8
  %48 = tail call noundef ptr @_ZN4llvm4Type10getInt32TyERNS_11LLVMContextE(ptr noundef nonnull align 8 dereferenceable(8) %47) #21
  %49 = zext i32 %45 to i64
  %50 = tail call noundef ptr @_ZN4llvm11ConstantInt3getEPNS_11IntegerTypeEmb(ptr noundef %48, i64 noundef %49, i1 noundef zeroext false) #21
  br label %_ZN4llvm13IRBuilderBase9CreateSubEPNS_5ValueES2_RKNS_5TwineEbb.exit

_ZN4llvm13IRBuilderBase9CreateSubEPNS_5ValueES2_RKNS_5TwineEbb.exit: ; preds = %_ZN4llvm13IRBuilderBase23CreateInsertNUWNSWBinOpENS_11Instruction9BinaryOpsEPNS_5ValueES4_RKNS_5TwineEbb.exit, %8, %44
  %.0 = phi ptr [ %50, %44 ], [ %30, %_ZN4llvm13IRBuilderBase23CreateInsertNUWNSWBinOpENS_11Instruction9BinaryOpsEPNS_5ValueES4_RKNS_5TwineEbb.exit ], [ %26, %8 ]
  ret ptr %.0
}